target datalayout = "e-m:e-p270:32:32-p271:32:32-p272:64:64-i64:64-i128:128-f80:128-n8:16:32:64-S128"
target triple = "x86_64-pc-linux-gnu"

; Function Attrs: nounwind uwtable
define i32 @Cnf_IsopWriteCube(i32 noundef %0, i32 noundef %1, ptr noundef %2, ptr noundef %3) #0 {
  %5 = alloca i32, align 4
  %6 = alloca i32, align 4
  %7 = alloca ptr, align 8
  %8 = alloca ptr, align 8
  %9 = alloca i32, align 4
  %10 = alloca i32, align 4
  store i32 %0, ptr %5, align 4, !tbaa !19
  store i32 %1, ptr %6, align 4, !tbaa !19
  store ptr %2, ptr %7, align 8, !tbaa !59
  store ptr %3, ptr %8, align 8, !tbaa !59
  call void @llvm.lifetime.start.p0(i64 4, ptr %9) #8
  %11 = load i32, ptr %6, align 4, !tbaa !19
  store i32 %11, ptr %9, align 4, !tbaa !19
  call void @llvm.lifetime.start.p0(i64 4, ptr %10) #8
  store i32 0, ptr %10, align 4, !tbaa !19
  br label %12

12:                                               ; preds = %50, %4
  %13 = load i32, ptr %10, align 4, !tbaa !19
  %14 = load i32, ptr %6, align 4, !tbaa !19
  %15 = icmp slt i32 %13, %14
  br i1 %15, label %16, label %53

16:                                               ; preds = %12
  %17 = load i32, ptr %5, align 4, !tbaa !19
  %18 = and i32 %17, 3
  %19 = icmp eq i32 %18, 1
  br i1 %19, label %20, label %29

20:                                               ; preds = %16
  %21 = load ptr, ptr %7, align 8, !tbaa !59
  %22 = load i32, ptr %10, align 4, !tbaa !19
  %23 = sext i32 %22 to i64
  %24 = getelementptr inbounds i32, ptr %21, i64 %23
  %25 = load i32, ptr %24, align 4, !tbaa !19
  %26 = mul nsw i32 2, %25
  %27 = load ptr, ptr %8, align 8, !tbaa !59
  %28 = getelementptr inbounds nuw i32, ptr %27, i32 1
  store ptr %28, ptr %8, align 8, !tbaa !59
  store i32 %26, ptr %27, align 4, !tbaa !19
  br label %47

29:                                               ; preds = %16
  %30 = load i32, ptr %5, align 4, !tbaa !19
  %31 = and i32 %30, 3
  %32 = icmp eq i32 %31, 2
  br i1 %32, label %33, label %43

33:                                               ; preds = %29
  %34 = load ptr, ptr %7, align 8, !tbaa !59
  %35 = load i32, ptr %10, align 4, !tbaa !19
  %36 = sext i32 %35 to i64
  %37 = getelementptr inbounds i32, ptr %34, i64 %36
  %38 = load i32, ptr %37, align 4, !tbaa !19
  %39 = mul nsw i32 2, %38
  %40 = add nsw i32 %39, 1
  %41 = load ptr, ptr %8, align 8, !tbaa !59
  %42 = getelementptr inbounds nuw i32, ptr %41, i32 1
  store ptr %42, ptr %8, align 8, !tbaa !59
  store i32 %40, ptr %41, align 4, !tbaa !19
  br label %46

43:                                               ; preds = %29
  %44 = load i32, ptr %9, align 4, !tbaa !19
  %45 = add nsw i32 %44, -1
  store i32 %45, ptr %9, align 4, !tbaa !19
  br label %46

46:                                               ; preds = %43, %33
  br label %47

47:                                               ; preds = %46, %20
  %48 = load i32, ptr %5, align 4, !tbaa !19
  %49 = ashr i32 %48, 2
  store i32 %49, ptr %5, align 4, !tbaa !19
  br label %50

50:                                               ; preds = %47
  %51 = load i32, ptr %10, align 4, !tbaa !19
  %52 = add nsw i32 %51, 1
  store i32 %52, ptr %10, align 4, !tbaa !19
  br label %12, !llvm.loop !60

53:                                               ; preds = %12
  %54 = load i32, ptr %9, align 4, !tbaa !19
  call void @llvm.lifetime.end.p0(i64 4, ptr %10) #8
  call void @llvm.lifetime.end.p0(i64 4, ptr %9) #8
  ret i32 %54
}