; Function Attrs: nofree norecurse nosync nounwind memory(argmem: readwrite) uwtable
define i32 @Cnf_IsopWriteCube(i32 noundef %0, i32 noundef %1, ptr noundef readonly captures(none) %2, ptr noundef writeonly captures(none) %3) local_unnamed_addr #4 {
  %5 = icmp sgt i32 %1, 0
  br i1 %5, label %.lr.ph.preheader, label %._crit_edge

.lr.ph.preheader:                                 ; preds = %4
  %wide.trip.count = zext nneg i32 %1 to i64
  br label %.lr.ph

.lr.ph:                                           ; preds = %.lr.ph.preheader, %20
  %indvars.iv = phi i64 [ 0, %.lr.ph.preheader ], [ %indvars.iv.next, %20 ]
  %.01421 = phi i32 [ %1, %.lr.ph.preheader ], [ %.1, %20 ]
  %.01520 = phi ptr [ %3, %.lr.ph.preheader ], [ %.116, %20 ]
  %.01719 = phi i32 [ %0, %.lr.ph.preheader ], [ %21, %20 ]
  %6 = and i32 %.01719, 3
  switch i32 %6, label %18 [
    i32 1, label %7
    i32 2, label %12
  ]

7:                                                ; preds = %.lr.ph
  %8 = getelementptr inbounds nuw i32, ptr %2, i64 %indvars.iv
  %9 = load i32, ptr %8, align 4, !tbaa !35
  %10 = shl nsw i32 %9, 1
  %11 = getelementptr inbounds nuw i8, ptr %.01520, i64 4
  store i32 %10, ptr %.01520, align 4, !tbaa !35
  br label %20

12:                                               ; preds = %.lr.ph
  %13 = getelementptr inbounds nuw i32, ptr %2, i64 %indvars.iv
  %14 = load i32, ptr %13, align 4, !tbaa !35
  %15 = shl nsw i32 %14, 1
  %16 = or disjoint i32 %15, 1
  %17 = getelementptr inbounds nuw i8, ptr %.01520, i64 4
  store i32 %16, ptr %.01520, align 4, !tbaa !35
  br label %20

18:                                               ; preds = %.lr.ph
  %19 = add nsw i32 %.01421, -1
  br label %20

20:                                               ; preds = %12, %18, %7
  %.116 = phi ptr [ %11, %7 ], [ %17, %12 ], [ %.01520, %18 ]
  %.1 = phi i32 [ %.01421, %7 ], [ %.01421, %12 ], [ %19, %18 ]
  %21 = ashr i32 %.01719, 2
  %indvars.iv.next = add nuw nsw i64 %indvars.iv, 1
  %exitcond.not = icmp eq i64 %indvars.iv.next, %wide.trip.count
  br i1 %exitcond.not, label %._crit_edge, label %.lr.ph, !llvm.loop !50

._crit_edge:                                      ; preds = %20, %4
  %.014.lcssa = phi i32 [ %1, %4 ], [ %.1, %20 ]
  ret i32 %.014.lcssa
}